target datalayout = "e-m:e-p270:32:32-p271:32:32-p272:64:64-i64:64-i128:128-f80:128-n8:16:32:64-S128"
target triple = "x86_64-pc-linux-gnu"

%struct.H5FD_log_fapl_t = type { ptr, i64, i64 }
%struct.H5FD_log_t = type { %struct.H5FD_t, i32, i64, i64, i8, [1024 x i8], i64, i64, i8, ptr, ptr, ptr, i64, i64, i64, i64, double, double, double, double, i64, ptr, %struct.H5FD_log_fapl_t }
%struct.H5FD_t = type { i64, ptr, i64, i32, i64, i64, i64, i64, i64, i8 }

@H5FD_init_g = external global i8, align 1
@H5_libterm_g = external global i8, align 1
@flavors = internal global [7 x ptr] [ptr @.str.42, ptr @.str.43, ptr @.str.44, ptr @.str.45, ptr @.str.46, ptr @.str.47, ptr @.str.48], align 16
@.str.50 = private unnamed_addr constant [38 x i8] c"%10lu-%10lu (%10lu bytes) (%s) Freed\0A\00", align 1

; Function Attrs: nounwind uwtable
define internal i32 @H5FD__log_free(ptr noundef %0, i32 noundef %1, i64 noundef %2, i64 noundef %3, i64 noundef %4) #0 {
  %6 = alloca ptr, align 8
  %7 = alloca i32, align 4
  %8 = alloca i64, align 8
  %9 = alloca i64, align 8
  %10 = alloca i64, align 8
  %11 = alloca ptr, align 8
  store ptr %0, ptr %6, align 8, !tbaa !24
  store i32 %1, ptr %7, align 4, !tbaa !3
  store i64 %2, ptr %8, align 8, !tbaa !11
  store i64 %3, ptr %9, align 8, !tbaa !11
  store i64 %4, ptr %10, align 8, !tbaa !11
  call void @llvm.lifetime.start.p0(i64 8, ptr %11) #9
  %12 = load ptr, ptr %6, align 8, !tbaa !24
  store ptr %12, ptr %11, align 8, !tbaa !26
  %13 = load i8, ptr @H5FD_init_g, align 1, !tbaa !7, !range !9, !noundef !10
  %14 = trunc i8 %13 to i1
  br i1 %14, label %19, label %15

15:                                               ; preds = %5
  %16 = load i8, ptr @H5_libterm_g, align 1, !tbaa !7, !range !9, !noundef !10
  %17 = trunc i8 %16 to i1
  %18 = xor i1 %17, true
  br label %19

19:                                               ; preds = %15, %5
  %20 = phi i1 [ true, %5 ], [ %18, %15 ]
  %21 = xor i1 %20, true
  %22 = xor i1 %21, true
  %23 = zext i1 %22 to i32
  %24 = sext i32 %23 to i64
  %25 = call i64 @llvm.expect.i64(i64 %24, i64 1)
  %26 = icmp ne i64 %25, 0
  br i1 %26, label %27, label %71

27:                                               ; preds = %19
  %28 = load ptr, ptr %11, align 8, !tbaa !26
  %29 = getelementptr inbounds nuw %struct.H5FD_log_t, ptr %28, i32 0, i32 22
  %30 = getelementptr inbounds nuw %struct.H5FD_log_fapl_t, ptr %29, i32 0, i32 1
  %31 = load i64, ptr %30, align 8, !tbaa !46
  %32 = icmp ne i64 %31, 0
  br i1 %32, label %33, label %70

33:                                               ; preds = %27
  %34 = load ptr, ptr %11, align 8, !tbaa !26
  %35 = getelementptr inbounds nuw %struct.H5FD_log_t, ptr %34, i32 0, i32 22
  %36 = getelementptr inbounds nuw %struct.H5FD_log_fapl_t, ptr %35, i32 0, i32 1
  %37 = load i64, ptr %36, align 8, !tbaa !46
  %38 = and i64 %37, 64
  %39 = icmp ne i64 %38, 0
  br i1 %39, label %40, label %47

40:                                               ; preds = %33
  %41 = load ptr, ptr %11, align 8, !tbaa !26
  %42 = getelementptr inbounds nuw %struct.H5FD_log_t, ptr %41, i32 0, i32 11
  %43 = load ptr, ptr %42, align 8, !tbaa !52
  %44 = load i64, ptr %9, align 8, !tbaa !11
  %45 = getelementptr inbounds nuw i8, ptr %43, i64 %44
  %46 = load i64, ptr %10, align 8, !tbaa !11
  call void @llvm.memset.p0.i64(ptr align 1 %45, i8 0, i64 %46, i1 false)
  br label %47

47:                                               ; preds = %40, %33
  %48 = load ptr, ptr %11, align 8, !tbaa !26
  %49 = getelementptr inbounds nuw %struct.H5FD_log_t, ptr %48, i32 0, i32 22
  %50 = getelementptr inbounds nuw %struct.H5FD_log_fapl_t, ptr %49, i32 0, i32 1
  %51 = load i64, ptr %50, align 8, !tbaa !46
  %52 = and i64 %51, 524288
  %53 = icmp ne i64 %52, 0
  br i1 %53, label %54, label %69

54:                                               ; preds = %47
  %55 = load ptr, ptr %11, align 8, !tbaa !26
  %56 = getelementptr inbounds nuw %struct.H5FD_log_t, ptr %55, i32 0, i32 21
  %57 = load ptr, ptr %56, align 8, !tbaa !53
  %58 = load i64, ptr %9, align 8, !tbaa !11
  %59 = load i64, ptr %9, align 8, !tbaa !11
  %60 = load i64, ptr %10, align 8, !tbaa !11
  %61 = add i64 %59, %60
  %62 = sub i64 %61, 1
  %63 = load i64, ptr %10, align 8, !tbaa !11
  %64 = load i32, ptr %7, align 4, !tbaa !3
  %65 = sext i32 %64 to i64
  %66 = getelementptr inbounds [7 x ptr], ptr @flavors, i64 0, i64 %65
  %67 = load ptr, ptr %66, align 8, !tbaa !13
  %68 = call i32 (ptr, ptr, ...) @fprintf(ptr noundef %57, ptr noundef @.str.50, i64 noundef %58, i64 noundef %62, i64 noundef %63, ptr noundef %67) #9
  br label %69

69:                                               ; preds = %54, %47
  br label %70

70:                                               ; preds = %69, %27
  br label %71

71:                                               ; preds = %70, %19
  call void @llvm.lifetime.end.p0(i64 8, ptr %11) #9
  ret i32 0
}