; Function Attrs: nofree nounwind uwtable
define internal noundef i32 @H5FD__log_free(ptr noundef readonly captures(none) %0, i32 noundef %1, i64 %2, i64 noundef %3, i64 noundef %4) #8 {
  %6 = load i8, ptr @H5FD_init_g, align 1, !tbaa !3, !range !7, !noundef !8
  %7 = trunc nuw i8 %6 to i1
  %8 = load i8, ptr @H5_libterm_g, align 1, !range !7
  %9 = trunc nuw i8 %8 to i1
  %10 = xor i1 %9, true
  %11 = select i1 %7, i1 true, i1 %10
  br i1 %11, label %12, label %33, !prof !9

12:                                               ; preds = %5
  %13 = getelementptr inbounds nuw i8, ptr %0, i64 1272
  %14 = load i64, ptr %13, align 8, !tbaa !37
  %.not = icmp eq i64 %14, 0
  br i1 %.not, label %33, label %15

15:                                               ; preds = %12
  %16 = and i64 %14, 64
  %.not12 = icmp eq i64 %16, 0
  br i1 %.not12, label %21, label %17

17:                                               ; preds = %15
  %18 = getelementptr inbounds nuw i8, ptr %0, i64 1176
  %19 = load ptr, ptr %18, align 8, !tbaa !43
  %20 = getelementptr inbounds nuw i8, ptr %19, i64 %3
  tail call void @llvm.memset.p0.i64(ptr align 1 %20, i8 0, i64 %4, i1 false)
  %.pre = load i64, ptr %13, align 8, !tbaa !37
  br label %21

21:                                               ; preds = %17, %15
  %22 = phi i64 [ %.pre, %17 ], [ %14, %15 ]
  %23 = and i64 %22, 524288
  %.not13 = icmp eq i64 %23, 0
  br i1 %.not13, label %33, label %24

24:                                               ; preds = %21
  %25 = getelementptr inbounds nuw i8, ptr %0, i64 1256
  %26 = load ptr, ptr %25, align 8, !tbaa !45
  %27 = add i64 %3, -1
  %28 = add i64 %27, %4
  %29 = sext i32 %1 to i64
  %30 = getelementptr inbounds [7 x ptr], ptr @flavors, i64 0, i64 %29
  %31 = load ptr, ptr %30, align 8, !tbaa !61
  %32 = tail call i32 (ptr, ptr, ...) @fprintf(ptr noundef %26, ptr noundef nonnull @.str.50, i64 noundef %3, i64 noundef %28, i64 noundef %4, ptr noundef %31) #19
  br label %33

33:                                               ; preds = %12, %24, %21, %5
  ret i32 0
}